target datalayout = "e-m:e-p270:32:32-p271:32:32-p272:64:64-i64:64-i128:128-f80:128-n8:16:32:64-S128"
target triple = "x86_64-pc-linux-gnu"

%"class.cv::UMat" = type { i32, i32, i32, i32, ptr, i32, ptr, i64, %"struct.cv::MatSize", %"struct.cv::MatStep" }
%"struct.cv::MatSize" = type { ptr }
%"struct.cv::MatStep" = type { ptr, [2 x i64] }
%"class.cv::Scalar_" = type { %"class.cv::Vec" }
%"class.cv::Vec" = type { %"class.cv::Matx" }
%"class.cv::Matx" = type { [4 x double] }

@_ZN2cv4UMatC1EiPKiiRKNS_7Scalar_IdEENS_14UMatUsageFlagsE = unnamed_addr alias void (ptr, i32, ptr, i32, ptr, i32), ptr @_ZN2cv4UMatC2EiPKiiRKNS_7Scalar_IdEENS_14UMatUsageFlagsE

; Function Attrs: inlinehint mustprogress nounwind uwtable
define linkonce_odr hidden void @_ZN2cv4MatxIdLi4ELi1EEC2Ev(ptr noundef nonnull align 8 dereferenceable(32) %0) unnamed_addr #5 comdat align 2 {
  %2 = alloca ptr, align 8
  %3 = alloca i32, align 4
  store ptr %0, ptr %2, align 8, !tbaa !192
  %4 = load ptr, ptr %2, align 8
  call void @llvm.lifetime.start.p0(i64 4, ptr %3) #16
  store i32 0, ptr %3, align 4, !tbaa !37
  br label %5

5:                                                ; preds = %14, %1
  %6 = load i32, ptr %3, align 4, !tbaa !37
  %7 = icmp slt i32 %6, 4
  br i1 %7, label %9, label %8

8:                                                ; preds = %5
  call void @llvm.lifetime.end.p0(i64 4, ptr %3) #16
  br label %17

9:                                                ; preds = %5
  %10 = getelementptr inbounds nuw %"class.cv::Matx", ptr %4, i32 0, i32 0
  %11 = load i32, ptr %3, align 4, !tbaa !37
  %12 = sext i32 %11 to i64
  %13 = getelementptr inbounds [4 x double], ptr %10, i64 0, i64 %12
  store double 0.000000e+00, ptr %13, align 8, !tbaa !172
  br label %14

14:                                               ; preds = %9
  %15 = load i32, ptr %3, align 4, !tbaa !37
  %16 = add nsw i32 %15, 1
  store i32 %16, ptr %3, align 4, !tbaa !37
  br label %5, !llvm.loop !228

17:                                               ; preds = %8
  ret void
}

; Function Attrs: inlinehint mustprogress uwtable
define linkonce_odr hidden void @_ZN2cv3VecIdLi4EEC2Ev(ptr noundef nonnull align 8 dereferenceable(32) %0) unnamed_addr #7 comdat align 2 {
  %2 = alloca ptr, align 8
  store ptr %0, ptr %2, align 8, !tbaa !226
  %3 = load ptr, ptr %2, align 8
  call void @_ZN2cv4MatxIdLi4ELi1EEC2Ev(ptr noundef nonnull align 8 dereferenceable(32) %3)
  ret void
}

; Function Attrs: inlinehint mustprogress uwtable
define linkonce_odr hidden void @_ZN2cv7Scalar_IdEC2Ed(ptr noundef nonnull align 8 dereferenceable(32) %0, double noundef %1) unnamed_addr #7 comdat align 2 {
  %3 = alloca ptr, align 8
  %4 = alloca double, align 8
  store ptr %0, ptr %3, align 8, !tbaa !89
  store double %1, ptr %4, align 8, !tbaa !172
  %5 = load ptr, ptr %3, align 8
  call void @_ZN2cv3VecIdLi4EEC2Ev(ptr noundef nonnull align 8 dereferenceable(32) %5)
  %6 = load double, ptr %4, align 8, !tbaa !172
  %7 = getelementptr inbounds nuw %"class.cv::Matx", ptr %5, i32 0, i32 0
  %8 = getelementptr inbounds [4 x double], ptr %7, i64 0, i64 0
  store double %6, ptr %8, align 8, !tbaa !172
  %9 = getelementptr inbounds nuw %"class.cv::Matx", ptr %5, i32 0, i32 0
  %10 = getelementptr inbounds [4 x double], ptr %9, i64 0, i64 3
  store double 0.000000e+00, ptr %10, align 8, !tbaa !172
  %11 = getelementptr inbounds nuw %"class.cv::Matx", ptr %5, i32 0, i32 0
  %12 = getelementptr inbounds [4 x double], ptr %11, i64 0, i64 2
  store double 0.000000e+00, ptr %12, align 8, !tbaa !172
  %13 = getelementptr inbounds nuw %"class.cv::Matx", ptr %5, i32 0, i32 0
  %14 = getelementptr inbounds [4 x double], ptr %13, i64 0, i64 1
  store double 0.000000e+00, ptr %14, align 8, !tbaa !172
  ret void
}

; Function Attrs: mustprogress uwtable
define void @_ZN2cv4UMat4onesEiPKiiNS_14UMatUsageFlagsE(ptr dead_on_unwind noalias writable sret(%"class.cv::UMat") align 8 %0, i32 noundef %1, ptr noundef %2, i32 noundef %3, i32 noundef %4) #3 align 2 {
  %6 = alloca ptr, align 8
  %7 = alloca i32, align 4
  %8 = alloca ptr, align 8
  %9 = alloca i32, align 4
  %10 = alloca i32, align 4
  %11 = alloca %"class.cv::Scalar_", align 8
  store ptr %0, ptr %6, align 8
  store i32 %1, ptr %7, align 4, !tbaa !37
  store ptr %2, ptr %8, align 8, !tbaa !84
  store i32 %3, ptr %9, align 4, !tbaa !37
  store i32 %4, ptr %10, align 4, !tbaa !67
  %12 = load i32, ptr %7, align 4, !tbaa !37
  %13 = load ptr, ptr %8, align 8, !tbaa !84
  %14 = load i32, ptr %9, align 4, !tbaa !37
  call void @llvm.lifetime.start.p0(i64 32, ptr %11) #16
  call void @_ZN2cv7Scalar_IdEC2Ed(ptr noundef nonnull align 8 dereferenceable(32) %11, double noundef 1.000000e+00)
  %15 = load i32, ptr %10, align 4, !tbaa !67
  call void @_ZN2cv4UMatC1EiPKiiRKNS_7Scalar_IdEENS_14UMatUsageFlagsE(ptr noundef nonnull align 8 dereferenceable(80) %0, i32 noundef %12, ptr noundef %13, i32 noundef %14, ptr noundef nonnull align 8 dereferenceable(32) %11, i32 noundef %15)
  call void @llvm.lifetime.end.p0(i64 32, ptr %11) #16
  ret void
}